; Function Attrs: nounwind uwtable
define noalias noundef ptr @Mio_SopCoverAnd(ptr noundef readonly captures(none) %0, ptr noundef readonly captures(none) %1) local_unnamed_addr #0 {
  %3 = getelementptr i8, ptr %0, i64 4
  %.val22 = load i32, ptr %3, align 4, !tbaa !3
  %4 = getelementptr i8, ptr %1, i64 4
  %.val21 = load i32, ptr %4, align 4, !tbaa !3
  %5 = mul nsw i32 %.val21, %.val22
  %6 = tail call noalias dereferenceable_or_null(16) ptr @malloc(i64 noundef 16) #6
  %7 = add i32 %5, -1
  %or.cond.i = icmp ult i32 %7, 15
  %spec.store.select.i = select i1 %or.cond.i, i32 16, i32 %5
  %8 = getelementptr inbounds nuw i8, ptr %6, i64 4
  store i32 0, ptr %8, align 4, !tbaa !3
  store i32 %spec.store.select.i, ptr %6, align 8, !tbaa !14
  %.not.i = icmp eq i32 %spec.store.select.i, 0
  br i1 %.not.i, label %Vec_IntAlloc.exit, label %9

9:                                                ; preds = %2
  %10 = sext i32 %spec.store.select.i to i64
  %11 = shl nsw i64 %10, 2
  %12 = tail call noalias ptr @malloc(i64 noundef %11) #6
  br label %Vec_IntAlloc.exit

Vec_IntAlloc.exit:                                ; preds = %2, %9
  %13 = phi ptr [ %12, %9 ], [ null, %2 ]
  %14 = getelementptr inbounds nuw i8, ptr %6, i64 8
  store ptr %13, ptr %14, align 8, !tbaa !10
  %15 = icmp sgt i32 %.val22, 0
  br i1 %15, label %.lr.ph31, label %.critedge

.lr.ph31:                                         ; preds = %Vec_IntAlloc.exit
  %16 = getelementptr i8, ptr %0, i64 8
  %17 = getelementptr i8, ptr %1, i64 8
  %18 = icmp sgt i32 %.val21, 0
  br i1 %18, label %.lr.ph31.split, label %.critedge

.lr.ph31.split:                                   ; preds = %.lr.ph31, %.critedge2
  %.val2048 = phi i32 [ %.val20, %.critedge2 ], [ %.val22, %.lr.ph31 ]
  %.pre.i.i43 = phi ptr [ %.pre.i.i44, %.critedge2 ], [ %13, %.lr.ph31 ]
  %.val17.i39 = phi ptr [ %.val17.i40, %.critedge2 ], [ %13, %.lr.ph31 ]
  %.val27 = phi i32 [ %.val2738, %.critedge2 ], [ %.val21, %.lr.ph31 ]
  %indvars.iv34 = phi i64 [ %indvars.iv.next35, %.critedge2 ], [ 0, %.lr.ph31 ]
  %.val24 = load ptr, ptr %16, align 8, !tbaa !10
  %19 = getelementptr inbounds nuw i32, ptr %.val24, i64 %indvars.iv34
  %20 = load i32, ptr %19, align 4, !tbaa !11
  %21 = icmp sgt i32 %.val27, 0
  br i1 %21, label %.lr.ph, label %.critedge2

.lr.ph:                                           ; preds = %.lr.ph31.split, %Mio_SopPushSCC.exit
  %22 = phi ptr [ %.pre.i.i46, %Mio_SopPushSCC.exit ], [ %.pre.i.i43, %.lr.ph31.split ]
  %.val17.i = phi ptr [ %.val17.i42, %Mio_SopPushSCC.exit ], [ %.val17.i39, %.lr.ph31.split ]
  %indvars.iv = phi i64 [ %indvars.iv.next, %Mio_SopPushSCC.exit ], [ 0, %.lr.ph31.split ]
  %.val23 = load ptr, ptr %17, align 8, !tbaa !10
  %23 = getelementptr inbounds nuw i32, ptr %.val23, i64 %indvars.iv
  %24 = load i32, ptr %23, align 4, !tbaa !11
  %25 = or i32 %24, %20
  %26 = lshr i32 %25, 1
  %27 = and i32 %25, 1431655765
  %28 = and i32 %27, %26
  %.not26 = icmp eq i32 %28, 0
  br i1 %.not26, label %29, label %Mio_SopPushSCC.exit

29:                                               ; preds = %.lr.ph
  %.val22.i = load i32, ptr %8, align 4, !tbaa !3
  %30 = icmp sgt i32 %.val22.i, 0
  br i1 %30, label %.lr.ph.i, label %.critedge.thread.i

.lr.ph.i:                                         ; preds = %29
  %31 = zext nneg i32 %.val22.i to i64
  br label %32

32:                                               ; preds = %41, %.lr.ph.i
  %indvars.iv.i = phi i64 [ 0, %.lr.ph.i ], [ %indvars.iv.next.i, %41 ]
  %.024.i = phi i32 [ 0, %.lr.ph.i ], [ %.1.i, %41 ]
  %33 = getelementptr inbounds nuw i32, ptr %.val17.i, i64 %indvars.iv.i
  %34 = load i32, ptr %33, align 4, !tbaa !11
  %35 = or i32 %34, %25
  %.not.i25 = icmp eq i32 %35, %25
  br i1 %.not.i25, label %Mio_SopPushSCC.exit, label %36

36:                                               ; preds = %32
  %.not19.i = icmp eq i32 %35, %34
  br i1 %.not19.i, label %41, label %37

37:                                               ; preds = %36
  %38 = add nsw i32 %.024.i, 1
  %39 = sext i32 %.024.i to i64
  %40 = getelementptr inbounds i32, ptr %.val17.i, i64 %39
  store i32 %34, ptr %40, align 4, !tbaa !11
  br label %41

41:                                               ; preds = %37, %36
  %.1.i = phi i32 [ %.024.i, %36 ], [ %38, %37 ]
  %indvars.iv.next.i = add nuw nsw i64 %indvars.iv.i, 1
  %exitcond.not = icmp eq i64 %indvars.iv.next.i, %31
  br i1 %exitcond.not, label %.critedge.i, label %32, !llvm.loop !12

.critedge.i:                                      ; preds = %41
  store i32 %.1.i, ptr %8, align 4, !tbaa !3
  %42 = load i32, ptr %6, align 8, !tbaa !14
  %43 = icmp eq i32 %.1.i, %42
  br i1 %43, label %46, label %Vec_IntPush.exit.i

.critedge.thread.i:                               ; preds = %29
  store i32 0, ptr %8, align 4, !tbaa !3
  %44 = load i32, ptr %6, align 8, !tbaa !14
  %45 = icmp eq i32 %44, 0
  br i1 %45, label %.thread.i, label %Vec_IntPush.exit.i

46:                                               ; preds = %.critedge.i
  %47 = icmp slt i32 %.1.i, 16
  br i1 %47, label %.thread.i, label %52

.thread.i:                                        ; preds = %46, %.critedge.thread.i
  %.not9.i.i.i = icmp eq ptr %22, null
  br i1 %.not9.i.i.i, label %50, label %48

48:                                               ; preds = %.thread.i
  %49 = tail call dereferenceable_or_null(64) ptr @realloc(ptr noundef nonnull %22, i64 noundef 64) #5
  br label %Vec_IntPush.exit.i.sink.split

50:                                               ; preds = %.thread.i
  %51 = tail call noalias dereferenceable_or_null(64) ptr @malloc(i64 noundef 64) #6
  br label %Vec_IntPush.exit.i.sink.split

52:                                               ; preds = %46
  %53 = shl nuw nsw i32 %.1.i, 1
  %54 = zext nneg i32 %53 to i64
  %55 = shl nuw nsw i64 %54, 2
  %56 = tail call ptr @realloc(ptr noundef nonnull %.val17.i, i64 noundef %55) #5
  br label %Vec_IntPush.exit.i.sink.split

Vec_IntPush.exit.i.sink.split:                    ; preds = %48, %50, %52
  %.sink50 = phi ptr [ %56, %52 ], [ %49, %48 ], [ %51, %50 ]
  %.sink = phi i32 [ %53, %52 ], [ 16, %48 ], [ 16, %50 ]
  store ptr %.sink50, ptr %14, align 8, !tbaa !10
  store i32 %.sink, ptr %6, align 8, !tbaa !14
  br label %Vec_IntPush.exit.i

Vec_IntPush.exit.i:                               ; preds = %Vec_IntPush.exit.i.sink.split, %.critedge.i, %.critedge.thread.i
  %.pre.i.i47 = phi ptr [ %22, %.critedge.thread.i ], [ %22, %.critedge.i ], [ %.sink50, %Vec_IntPush.exit.i.sink.split ]
  %57 = load i32, ptr %8, align 4, !tbaa !3
  %58 = add nsw i32 %57, 1
  store i32 %58, ptr %8, align 4, !tbaa !3
  %59 = sext i32 %57 to i64
  %60 = getelementptr inbounds i32, ptr %.pre.i.i47, i64 %59
  store i32 %25, ptr %60, align 4, !tbaa !11
  br label %Mio_SopPushSCC.exit

Mio_SopPushSCC.exit:                              ; preds = %32, %Vec_IntPush.exit.i, %.lr.ph
  %.pre.i.i46 = phi ptr [ %.pre.i.i47, %Vec_IntPush.exit.i ], [ %22, %.lr.ph ], [ %22, %32 ]
  %.val17.i42 = phi ptr [ %.pre.i.i47, %Vec_IntPush.exit.i ], [ %.val17.i, %.lr.ph ], [ %.val17.i, %32 ]
  %indvars.iv.next = add nuw nsw i64 %indvars.iv, 1
  %.val = load i32, ptr %4, align 4, !tbaa !3
  %61 = sext i32 %.val to i64
  %62 = icmp slt i64 %indvars.iv.next, %61
  br i1 %62, label %.lr.ph, label %.critedge2.loopexit, !llvm.loop !17

.critedge2.loopexit:                              ; preds = %Mio_SopPushSCC.exit
  %.val20.pre = load i32, ptr %3, align 4, !tbaa !3
  br label %.critedge2

.critedge2:                                       ; preds = %.critedge2.loopexit, %.lr.ph31.split
  %.val20 = phi i32 [ %.val20.pre, %.critedge2.loopexit ], [ %.val2048, %.lr.ph31.split ]
  %.pre.i.i44 = phi ptr [ %.pre.i.i46, %.critedge2.loopexit ], [ %.pre.i.i43, %.lr.ph31.split ]
  %.val17.i40 = phi ptr [ %.val17.i42, %.critedge2.loopexit ], [ %.val17.i39, %.lr.ph31.split ]
  %.val2738 = phi i32 [ %.val, %.critedge2.loopexit ], [ %.val27, %.lr.ph31.split ]
  %indvars.iv.next35 = add nuw nsw i64 %indvars.iv34, 1
  %63 = sext i32 %.val20 to i64
  %64 = icmp slt i64 %indvars.iv.next35, %63
  br i1 %64, label %.lr.ph31.split, label %.critedge, !llvm.loop !18

.critedge:                                        ; preds = %.critedge2, %.lr.ph31, %Vec_IntAlloc.exit
  ret ptr %6
}